
start:     file format elf32-littlearm


Disassembly of section .text:

50000000 <_start>:
50000000:	e92d4000 	push	{lr}
50000004:	eb000000 	bl	5000000c <main>
50000008:	e8bd8000 	pop	{pc}

5000000c <main>:
5000000c:	e92d4800 	push	{fp, lr}
50000010:	e28db004 	add	fp, sp, #4
50000014:	e24dd008 	sub	sp, sp, #8
50000018:	e59f30dc 	ldr	r3, [pc, #220]	; 500000fc <main+0xf0>
5000001c:	e59f00dc 	ldr	r0, [pc, #220]	; 50000100 <main+0xf4>
50000020:	e12fff33 	blx	r3
50000024:	e59f20d8 	ldr	r2, [pc, #216]	; 50000104 <main+0xf8>
50000028:	e59f30d8 	ldr	r3, [pc, #216]	; 50000108 <main+0xfc>
5000002c:	e0633002 	rsb	r3, r3, r2
50000030:	e59f00d0 	ldr	r0, [pc, #208]	; 50000108 <main+0xfc>
50000034:	e3a01000 	mov	r1, #0
50000038:	e1a02003 	mov	r2, r3
5000003c:	eb000323 	bl	50000cd0 <memset>
50000040:	e59f30c4 	ldr	r3, [pc, #196]	; 5000010c <main+0x100>
50000044:	e50b3008 	str	r3, [fp, #-8]
50000048:	e59f30c0 	ldr	r3, [pc, #192]	; 50000110 <main+0x104>
5000004c:	e50b300c 	str	r3, [fp, #-12]
50000050:	ee110f10 	mrc	15, 0, r0, cr1, cr0, {0}
50000054:	e3800a02 	orr	r0, r0, #8192	; 0x2000
50000058:	ee010f10 	mcr	15, 0, r0, cr1, cr0, {0}
5000005c:	e59f30b0 	ldr	r3, [pc, #176]	; 50000114 <main+0x108>
50000060:	e5933000 	ldr	r3, [r3]
50000064:	e1a00003 	mov	r0, r3
50000068:	eb00010a 	bl	50000498 <ttb_init>
5000006c:	e59f30a0 	ldr	r3, [pc, #160]	; 50000114 <main+0x108>
50000070:	e5933000 	ldr	r3, [r3]
50000074:	e1a00003 	mov	r0, r3
50000078:	e51b1008 	ldr	r1, [fp, #-8]
5000007c:	e51b200c 	ldr	r2, [fp, #-12]
50000080:	eb000131 	bl	5000054c <ttb_l1_mmap>
50000084:	e59f3088 	ldr	r3, [pc, #136]	; 50000114 <main+0x108>
50000088:	e5933000 	ldr	r3, [r3]
5000008c:	e1a00003 	mov	r0, r3
50000090:	e3e01000 	mvn	r1, #0
50000094:	eb000164 	bl	5000062c <mmu_enable>
50000098:	e51b2008 	ldr	r2, [fp, #-8]
5000009c:	e59f1074 	ldr	r1, [pc, #116]	; 50000118 <main+0x10c>
500000a0:	e59f3074 	ldr	r3, [pc, #116]	; 5000011c <main+0x110>
500000a4:	e0633001 	rsb	r3, r3, r1
500000a8:	e1a00002 	mov	r0, r2
500000ac:	e59f1068 	ldr	r1, [pc, #104]	; 5000011c <main+0x110>
500000b0:	e1a02003 	mov	r2, r3
500000b4:	eb000325 	bl	50000d50 <memcpy>
500000b8:	f1080080 	cpsie	i
500000bc:	e3a000ff 	mov	r0, #255	; 0xff
500000c0:	eb00021d 	bl	5000093c <enable_cpu>
500000c4:	e3a00049 	mov	r0, #73	; 0x49
500000c8:	e3a01049 	mov	r1, #73	; 0x49
500000cc:	eb000230 	bl	50000994 <enable_irq>
500000d0:	eb00003a 	bl	500001c0 <led_alloff>
500000d4:	eb00002e 	bl	50000194 <led_allon>
500000d8:	e3a00001 	mov	r0, #1
500000dc:	eb0002bc 	bl	50000bd4 <pwm_timer4_irq_init>
500000e0:	e59f3014 	ldr	r3, [pc, #20]	; 500000fc <main+0xf0>
500000e4:	e59f0034 	ldr	r0, [pc, #52]	; 50000120 <main+0x114>
500000e8:	e12fff33 	blx	r3
500000ec:	e3a03000 	mov	r3, #0
500000f0:	e1a00003 	mov	r0, r3
500000f4:	e24bd004 	sub	sp, fp, #4
500000f8:	e8bd8800 	pop	{fp, pc}
500000fc:	43e11a2c 	mvnmi	r1, #180224	; 0x2c000
50000100:	50001080 	andpl	r1, r0, r0, lsl #1
50000104:	5000110c 	andpl	r1, r0, ip, lsl #2
50000108:	5000110c 	andpl	r1, r0, ip, lsl #2
5000010c:	ffff0000 	undefined instruction 0xffff0000
50000110:	7fff0000 	svcvc	0x00ff0000
50000114:	50001108 	andpl	r1, r0, r8, lsl #2
50000118:	500006ec 	andpl	r0, r0, ip, ror #13
5000011c:	500006b0 	undefined instruction 0x500006b0
50000120:	5000108c 	andpl	r1, r0, ip, lsl #1

50000124 <delay>:
50000124:	e52db004 	push	{fp}		; (str fp, [sp, #-4]!)
50000128:	e28db000 	add	fp, sp, #0
5000012c:	e24dd00c 	sub	sp, sp, #12
50000130:	e50b0008 	str	r0, [fp, #-8]
50000134:	e1a00000 	nop			; (mov r0, r0)
50000138:	e51b3008 	ldr	r3, [fp, #-8]
5000013c:	e2433001 	sub	r3, r3, #1
50000140:	e50b3008 	str	r3, [fp, #-8]
50000144:	e51b3008 	ldr	r3, [fp, #-8]
50000148:	e3530000 	cmp	r3, #0
5000014c:	1afffff9 	bne	50000138 <delay+0x14>
50000150:	e28bd000 	add	sp, fp, #0
50000154:	e8bd0800 	pop	{fp}
50000158:	e12fff1e 	bx	lr

5000015c <led_init>:
5000015c:	e52db004 	push	{fp}		; (str fp, [sp, #-4]!)
50000160:	e28db000 	add	fp, sp, #0
50000164:	e59f2024 	ldr	r2, [pc, #36]	; 50000190 <led_init+0x34>
50000168:	e59f3020 	ldr	r3, [pc, #32]	; 50000190 <led_init+0x34>
5000016c:	e5933000 	ldr	r3, [r3]
50000170:	e1a03823 	lsr	r3, r3, #16
50000174:	e1a03803 	lsl	r3, r3, #16
50000178:	e3833c11 	orr	r3, r3, #4352	; 0x1100
5000017c:	e3833011 	orr	r3, r3, #17
50000180:	e5823000 	str	r3, [r2]
50000184:	e28bd000 	add	sp, fp, #0
50000188:	e8bd0800 	pop	{fp}
5000018c:	e12fff1e 	bx	lr
50000190:	110002e0 	smlattne	r0, r0, r2, r0

50000194 <led_allon>:
50000194:	e52db004 	push	{fp}		; (str fp, [sp, #-4]!)
50000198:	e28db000 	add	fp, sp, #0
5000019c:	e59f3018 	ldr	r3, [pc, #24]	; 500001bc <led_allon+0x28>
500001a0:	e59f2014 	ldr	r2, [pc, #20]	; 500001bc <led_allon+0x28>
500001a4:	e5922000 	ldr	r2, [r2]
500001a8:	e3c2200f 	bic	r2, r2, #15
500001ac:	e5832000 	str	r2, [r3]
500001b0:	e28bd000 	add	sp, fp, #0
500001b4:	e8bd0800 	pop	{fp}
500001b8:	e12fff1e 	bx	lr
500001bc:	110002e4 	smlattne	r0, r4, r2, r0

500001c0 <led_alloff>:
500001c0:	e52db004 	push	{fp}		; (str fp, [sp, #-4]!)
500001c4:	e28db000 	add	fp, sp, #0
500001c8:	e59f3018 	ldr	r3, [pc, #24]	; 500001e8 <led_alloff+0x28>
500001cc:	e59f2014 	ldr	r2, [pc, #20]	; 500001e8 <led_alloff+0x28>
500001d0:	e5922000 	ldr	r2, [r2]
500001d4:	e382200f 	orr	r2, r2, #15
500001d8:	e5832000 	str	r2, [r3]
500001dc:	e28bd000 	add	sp, fp, #0
500001e0:	e8bd0800 	pop	{fp}
500001e4:	e12fff1e 	bx	lr
500001e8:	110002e4 	smlattne	r0, r4, r2, r0

500001ec <led_on>:
500001ec:	e52db004 	push	{fp}		; (str fp, [sp, #-4]!)
500001f0:	e28db000 	add	fp, sp, #0
500001f4:	e24dd00c 	sub	sp, sp, #12
500001f8:	e50b0008 	str	r0, [fp, #-8]
500001fc:	e59f3028 	ldr	r3, [pc, #40]	; 5000022c <led_on+0x40>
50000200:	e59f2024 	ldr	r2, [pc, #36]	; 5000022c <led_on+0x40>
50000204:	e5921000 	ldr	r1, [r2]
50000208:	e51b2008 	ldr	r2, [fp, #-8]
5000020c:	e3a00001 	mov	r0, #1
50000210:	e1a02210 	lsl	r2, r0, r2
50000214:	e1e02002 	mvn	r2, r2
50000218:	e0012002 	and	r2, r1, r2
5000021c:	e5832000 	str	r2, [r3]
50000220:	e28bd000 	add	sp, fp, #0
50000224:	e8bd0800 	pop	{fp}
50000228:	e12fff1e 	bx	lr
5000022c:	110002e4 	smlattne	r0, r4, r2, r0

50000230 <led_off>:
50000230:	e52db004 	push	{fp}		; (str fp, [sp, #-4]!)
50000234:	e28db000 	add	fp, sp, #0
50000238:	e24dd00c 	sub	sp, sp, #12
5000023c:	e50b0008 	str	r0, [fp, #-8]
50000240:	e59f3024 	ldr	r3, [pc, #36]	; 5000026c <led_off+0x3c>
50000244:	e59f2020 	ldr	r2, [pc, #32]	; 5000026c <led_off+0x3c>
50000248:	e5921000 	ldr	r1, [r2]
5000024c:	e51b2008 	ldr	r2, [fp, #-8]
50000250:	e3a00001 	mov	r0, #1
50000254:	e1a02210 	lsl	r2, r0, r2
50000258:	e1812002 	orr	r2, r1, r2
5000025c:	e5832000 	str	r2, [r3]
50000260:	e28bd000 	add	sp, fp, #0
50000264:	e8bd0800 	pop	{fp}
50000268:	e12fff1e 	bx	lr
5000026c:	110002e4 	smlattne	r0, r4, r2, r0

50000270 <led_get>:
50000270:	e52db004 	push	{fp}		; (str fp, [sp, #-4]!)
50000274:	e28db000 	add	fp, sp, #0
50000278:	e59f3014 	ldr	r3, [pc, #20]	; 50000294 <led_get+0x24>
5000027c:	e5933000 	ldr	r3, [r3]
50000280:	e203300f 	and	r3, r3, #15
50000284:	e1a00003 	mov	r0, r3
50000288:	e28bd000 	add	sp, fp, #0
5000028c:	e8bd0800 	pop	{fp}
50000290:	e12fff1e 	bx	lr
50000294:	110002e4 	smlattne	r0, r4, r2, r0

50000298 <led_set>:
50000298:	e52db004 	push	{fp}		; (str fp, [sp, #-4]!)
5000029c:	e28db000 	add	fp, sp, #0
500002a0:	e24dd00c 	sub	sp, sp, #12
500002a4:	e50b0008 	str	r0, [fp, #-8]
500002a8:	e59f3024 	ldr	r3, [pc, #36]	; 500002d4 <led_set+0x3c>
500002ac:	e59f2020 	ldr	r2, [pc, #32]	; 500002d4 <led_set+0x3c>
500002b0:	e5922000 	ldr	r2, [r2]
500002b4:	e3c2100f 	bic	r1, r2, #15
500002b8:	e51b2008 	ldr	r2, [fp, #-8]
500002bc:	e202200f 	and	r2, r2, #15
500002c0:	e1812002 	orr	r2, r1, r2
500002c4:	e5832000 	str	r2, [r3]
500002c8:	e28bd000 	add	sp, fp, #0
500002cc:	e8bd0800 	pop	{fp}
500002d0:	e12fff1e 	bx	lr
500002d4:	110002e4 	smlattne	r0, r4, r2, r0

500002d8 <buzzer_init>:
500002d8:	e52db004 	push	{fp}		; (str fp, [sp, #-4]!)
500002dc:	e28db000 	add	fp, sp, #0
500002e0:	e59f301c 	ldr	r3, [pc, #28]	; 50000304 <buzzer_init+0x2c>
500002e4:	e59f2018 	ldr	r2, [pc, #24]	; 50000304 <buzzer_init+0x2c>
500002e8:	e5922000 	ldr	r2, [r2]
500002ec:	e3c22c0f 	bic	r2, r2, #3840	; 0xf00
500002f0:	e3822c01 	orr	r2, r2, #256	; 0x100
500002f4:	e5832000 	str	r2, [r3]
500002f8:	e28bd000 	add	sp, fp, #0
500002fc:	e8bd0800 	pop	{fp}
50000300:	e12fff1e 	bx	lr
50000304:	11000c60 	tstne	r0, r0, ror #24

50000308 <buzzer_on>:
50000308:	e52db004 	push	{fp}		; (str fp, [sp, #-4]!)
5000030c:	e28db000 	add	fp, sp, #0
50000310:	e59f3018 	ldr	r3, [pc, #24]	; 50000330 <buzzer_on+0x28>
50000314:	e59f2014 	ldr	r2, [pc, #20]	; 50000330 <buzzer_on+0x28>
50000318:	e5922000 	ldr	r2, [r2]
5000031c:	e3822001 	orr	r2, r2, #1
50000320:	e5832000 	str	r2, [r3]
50000324:	e28bd000 	add	sp, fp, #0
50000328:	e8bd0800 	pop	{fp}
5000032c:	e12fff1e 	bx	lr
50000330:	114000a4 	smlaltbne	r0, r0, r4, r0

50000334 <buzzer_off>:
50000334:	e52db004 	push	{fp}		; (str fp, [sp, #-4]!)
50000338:	e28db000 	add	fp, sp, #0
5000033c:	e59f3018 	ldr	r3, [pc, #24]	; 5000035c <buzzer_off+0x28>
50000340:	e59f2014 	ldr	r2, [pc, #20]	; 5000035c <buzzer_off+0x28>
50000344:	e5922000 	ldr	r2, [r2]
50000348:	e3c22001 	bic	r2, r2, #1
5000034c:	e5832000 	str	r2, [r3]
50000350:	e28bd000 	add	sp, fp, #0
50000354:	e8bd0800 	pop	{fp}
50000358:	e12fff1e 	bx	lr
5000035c:	114000a4 	smlaltbne	r0, r0, r4, r0

50000360 <key_init>:
50000360:	e52db004 	push	{fp}		; (str fp, [sp, #-4]!)
50000364:	e28db000 	add	fp, sp, #0
50000368:	e59f201c 	ldr	r2, [pc, #28]	; 5000038c <key_init+0x2c>
5000036c:	e59f3018 	ldr	r3, [pc, #24]	; 5000038c <key_init+0x2c>
50000370:	e5933000 	ldr	r3, [r3]
50000374:	e3c338ff 	bic	r3, r3, #16711680	; 0xff0000
50000378:	e3c33cff 	bic	r3, r3, #65280	; 0xff00
5000037c:	e5823000 	str	r3, [r2]
50000380:	e28bd000 	add	sp, fp, #0
50000384:	e8bd0800 	pop	{fp}
50000388:	e12fff1e 	bx	lr
5000038c:	11000c60 	tstne	r0, r0, ror #24

50000390 <key_get>:
50000390:	e52db004 	push	{fp}		; (str fp, [sp, #-4]!)
50000394:	e28db000 	add	fp, sp, #0
50000398:	e59f3018 	ldr	r3, [pc, #24]	; 500003b8 <key_get+0x28>
5000039c:	e5933000 	ldr	r3, [r3]
500003a0:	e203303c 	and	r3, r3, #60	; 0x3c
500003a4:	e1a03123 	lsr	r3, r3, #2
500003a8:	e1a00003 	mov	r0, r3
500003ac:	e28bd000 	add	sp, fp, #0
500003b0:	e8bd0800 	pop	{fp}
500003b4:	e12fff1e 	bx	lr
500003b8:	11000c64 	tstne	r0, r4, ror #24

500003bc <adc_init>:
500003bc:	e52db004 	push	{fp}		; (str fp, [sp, #-4]!)
500003c0:	e28db000 	add	fp, sp, #0
500003c4:	e59f3038 	ldr	r3, [pc, #56]	; 50000404 <adc_init+0x48>
500003c8:	e59f2034 	ldr	r2, [pc, #52]	; 50000404 <adc_init+0x48>
500003cc:	e5922000 	ldr	r2, [r2]
500003d0:	e3c22801 	bic	r2, r2, #65536	; 0x10000
500003d4:	e5832000 	str	r2, [r3]
500003d8:	e59f3028 	ldr	r3, [pc, #40]	; 50000408 <adc_init+0x4c>
500003dc:	e59f2024 	ldr	r2, [pc, #36]	; 50000408 <adc_init+0x4c>
500003e0:	e5922000 	ldr	r2, [r2]
500003e4:	e3c2200f 	bic	r2, r2, #15
500003e8:	e5832000 	str	r2, [r3]
500003ec:	e59f3018 	ldr	r3, [pc, #24]	; 5000040c <adc_init+0x50>
500003f0:	e59f2018 	ldr	r2, [pc, #24]	; 50000410 <adc_init+0x54>
500003f4:	e5832000 	str	r2, [r3]
500003f8:	e28bd000 	add	sp, fp, #0
500003fc:	e8bd0800 	pop	{fp}
50000400:	e12fff1e 	bx	lr
50000404:	10010118 	andne	r0, r1, r8, lsl r1
50000408:	126c001c 	rsbne	r0, ip, #28
5000040c:	126c0000 	rsbne	r0, ip, #0
50000410:	000144c0 	andeq	r4, r1, r0, asr #9

50000414 <adc_start>:
50000414:	e52db004 	push	{fp}		; (str fp, [sp, #-4]!)
50000418:	e28db000 	add	fp, sp, #0
5000041c:	e59f3018 	ldr	r3, [pc, #24]	; 5000043c <adc_start+0x28>
50000420:	e59f2014 	ldr	r2, [pc, #20]	; 5000043c <adc_start+0x28>
50000424:	e5922000 	ldr	r2, [r2]
50000428:	e3822001 	orr	r2, r2, #1
5000042c:	e5832000 	str	r2, [r3]
50000430:	e28bd000 	add	sp, fp, #0
50000434:	e8bd0800 	pop	{fp}
50000438:	e12fff1e 	bx	lr
5000043c:	126c0000 	rsbne	r0, ip, #0

50000440 <adc_end_flag>:
50000440:	e52db004 	push	{fp}		; (str fp, [sp, #-4]!)
50000444:	e28db000 	add	fp, sp, #0
50000448:	e59f3018 	ldr	r3, [pc, #24]	; 50000468 <adc_end_flag+0x28>
5000044c:	e5933000 	ldr	r3, [r3]
50000450:	e2033902 	and	r3, r3, #32768	; 0x8000
50000454:	e1a037a3 	lsr	r3, r3, #15
50000458:	e1a00003 	mov	r0, r3
5000045c:	e28bd000 	add	sp, fp, #0
50000460:	e8bd0800 	pop	{fp}
50000464:	e12fff1e 	bx	lr
50000468:	126c0000 	rsbne	r0, ip, #0

5000046c <adc_data>:
5000046c:	e52db004 	push	{fp}		; (str fp, [sp, #-4]!)
50000470:	e28db000 	add	fp, sp, #0
50000474:	e59f3018 	ldr	r3, [pc, #24]	; 50000494 <adc_data+0x28>
50000478:	e5933000 	ldr	r3, [r3]
5000047c:	e1a03a03 	lsl	r3, r3, #20
50000480:	e1a03a23 	lsr	r3, r3, #20
50000484:	e1a00003 	mov	r0, r3
50000488:	e28bd000 	add	sp, fp, #0
5000048c:	e8bd0800 	pop	{fp}
50000490:	e12fff1e 	bx	lr
50000494:	126c000c 	rsbne	r0, ip, #12

50000498 <ttb_init>:
50000498:	e52db004 	push	{fp}		; (str fp, [sp, #-4]!)
5000049c:	e28db000 	add	fp, sp, #0
500004a0:	e24dd014 	sub	sp, sp, #20
500004a4:	e50b0010 	str	r0, [fp, #-16]
500004a8:	e3a03101 	mov	r3, #1073741824	; 0x40000000
500004ac:	e50b3008 	str	r3, [fp, #-8]
500004b0:	ea00000c 	b	500004e8 <ttb_init+0x50>
500004b4:	e51b3008 	ldr	r3, [fp, #-8]
500004b8:	e1a03a23 	lsr	r3, r3, #20
500004bc:	e1a03103 	lsl	r3, r3, #2
500004c0:	e51b2010 	ldr	r2, [fp, #-16]
500004c4:	e0822003 	add	r2, r2, r3
500004c8:	e51b3008 	ldr	r3, [fp, #-8]
500004cc:	e1a03a23 	lsr	r3, r3, #20
500004d0:	e1a03a03 	lsl	r3, r3, #20
500004d4:	e3833002 	orr	r3, r3, #2
500004d8:	e5823000 	str	r3, [r2]
500004dc:	e51b3008 	ldr	r3, [fp, #-8]
500004e0:	e2833601 	add	r3, r3, #1048576	; 0x100000
500004e4:	e50b3008 	str	r3, [fp, #-8]
500004e8:	e51b3008 	ldr	r3, [fp, #-8]
500004ec:	e3530000 	cmp	r3, #0
500004f0:	aaffffef 	bge	500004b4 <ttb_init+0x1c>
500004f4:	e3a03201 	mov	r3, #268435456	; 0x10000000
500004f8:	e50b3008 	str	r3, [fp, #-8]
500004fc:	ea00000c 	b	50000534 <ttb_init+0x9c>
50000500:	e51b3008 	ldr	r3, [fp, #-8]
50000504:	e1a03a23 	lsr	r3, r3, #20
50000508:	e1a03103 	lsl	r3, r3, #2
5000050c:	e51b2010 	ldr	r2, [fp, #-16]
50000510:	e0822003 	add	r2, r2, r3
50000514:	e51b3008 	ldr	r3, [fp, #-8]
50000518:	e1a03a23 	lsr	r3, r3, #20
5000051c:	e1a03a03 	lsl	r3, r3, #20
50000520:	e3833002 	orr	r3, r3, #2
50000524:	e5823000 	str	r3, [r2]
50000528:	e51b3008 	ldr	r3, [fp, #-8]
5000052c:	e2833601 	add	r3, r3, #1048576	; 0x100000
50000530:	e50b3008 	str	r3, [fp, #-8]
50000534:	e51b3008 	ldr	r3, [fp, #-8]
50000538:	e373037b 	cmn	r3, #-335544319	; 0xec000001
5000053c:	9affffef 	bls	50000500 <ttb_init+0x68>
50000540:	e28bd000 	add	sp, fp, #0
50000544:	e8bd0800 	pop	{fp}
50000548:	e12fff1e 	bx	lr

5000054c <ttb_l1_mmap>:
5000054c:	e52db004 	push	{fp}		; (str fp, [sp, #-4]!)
50000550:	e28db000 	add	fp, sp, #0
50000554:	e24dd014 	sub	sp, sp, #20
50000558:	e50b0008 	str	r0, [fp, #-8]
5000055c:	e50b100c 	str	r1, [fp, #-12]
50000560:	e50b2010 	str	r2, [fp, #-16]
50000564:	e51b300c 	ldr	r3, [fp, #-12]
50000568:	e1a03a23 	lsr	r3, r3, #20
5000056c:	e1a03103 	lsl	r3, r3, #2
50000570:	e51b2008 	ldr	r2, [fp, #-8]
50000574:	e0822003 	add	r2, r2, r3
50000578:	e51b3010 	ldr	r3, [fp, #-16]
5000057c:	e1a03a23 	lsr	r3, r3, #20
50000580:	e1a03a03 	lsl	r3, r3, #20
50000584:	e3833002 	orr	r3, r3, #2
50000588:	e5823000 	str	r3, [r2]
5000058c:	e28bd000 	add	sp, fp, #0
50000590:	e8bd0800 	pop	{fp}
50000594:	e12fff1e 	bx	lr

50000598 <ttb_l2_mmap>:
50000598:	e52db004 	push	{fp}		; (str fp, [sp, #-4]!)
5000059c:	e28db000 	add	fp, sp, #0
500005a0:	e24dd014 	sub	sp, sp, #20
500005a4:	e50b0008 	str	r0, [fp, #-8]
500005a8:	e50b100c 	str	r1, [fp, #-12]
500005ac:	e50b2010 	str	r2, [fp, #-16]
500005b0:	e50b3014 	str	r3, [fp, #-20]
500005b4:	e51b3010 	ldr	r3, [fp, #-16]
500005b8:	e1a03a23 	lsr	r3, r3, #20
500005bc:	e1a03103 	lsl	r3, r3, #2
500005c0:	e51b2008 	ldr	r2, [fp, #-8]
500005c4:	e0822003 	add	r2, r2, r3
500005c8:	e51b300c 	ldr	r3, [fp, #-12]
500005cc:	e3c33fff 	bic	r3, r3, #1020	; 0x3fc
500005d0:	e3c33003 	bic	r3, r3, #3
500005d4:	e3833001 	orr	r3, r3, #1
500005d8:	e5823000 	str	r3, [r2]
500005dc:	e51b3010 	ldr	r3, [fp, #-16]
500005e0:	e1a03623 	lsr	r3, r3, #12
500005e4:	e20330ff 	and	r3, r3, #255	; 0xff
500005e8:	e1a03103 	lsl	r3, r3, #2
500005ec:	e51b200c 	ldr	r2, [fp, #-12]
500005f0:	e0822003 	add	r2, r2, r3
500005f4:	e51b3014 	ldr	r3, [fp, #-20]
500005f8:	e3c33eff 	bic	r3, r3, #4080	; 0xff0
500005fc:	e3c3300f 	bic	r3, r3, #15
50000600:	e3833002 	orr	r3, r3, #2
50000604:	e5823000 	str	r3, [r2]
50000608:	e28bd000 	add	sp, fp, #0
5000060c:	e8bd0800 	pop	{fp}
50000610:	e12fff1e 	bx	lr

50000614 <clean_tlb>:
50000614:	e52db004 	push	{fp}		; (str fp, [sp, #-4]!)
50000618:	e28db000 	add	fp, sp, #0
5000061c:	ee080f17 	mcr	15, 0, r0, cr8, cr7, {0}
50000620:	e28bd000 	add	sp, fp, #0
50000624:	e8bd0800 	pop	{fp}
50000628:	e12fff1e 	bx	lr

5000062c <mmu_enable>:
5000062c:	e92d4800 	push	{fp, lr}
50000630:	e28db004 	add	fp, sp, #4
50000634:	e24dd008 	sub	sp, sp, #8
50000638:	e50b0008 	str	r0, [fp, #-8]
5000063c:	e50b100c 	str	r1, [fp, #-12]
50000640:	ebfffff3 	bl	50000614 <clean_tlb>
50000644:	e51b300c 	ldr	r3, [fp, #-12]
50000648:	e51b2008 	ldr	r2, [fp, #-8]
5000064c:	ee033f10 	mcr	15, 0, r3, cr3, cr0, {0}
50000650:	ee022f10 	mcr	15, 0, r2, cr2, cr0, {0}
50000654:	ee110f10 	mrc	15, 0, r0, cr1, cr0, {0}
50000658:	e3800001 	orr	r0, r0, #1
5000065c:	ee010f10 	mcr	15, 0, r0, cr1, cr0, {0}
50000660:	e24bd004 	sub	sp, fp, #4
50000664:	e8bd8800 	pop	{fp, pc}

50000668 <change_ttb>:
50000668:	e52db004 	push	{fp}		; (str fp, [sp, #-4]!)
5000066c:	e28db000 	add	fp, sp, #0
50000670:	e24dd00c 	sub	sp, sp, #12
50000674:	e50b0008 	str	r0, [fp, #-8]
50000678:	e51b3008 	ldr	r3, [fp, #-8]
5000067c:	ee023f10 	mcr	15, 0, r3, cr2, cr0, {0}
50000680:	e28bd000 	add	sp, fp, #0
50000684:	e8bd0800 	pop	{fp}
50000688:	e12fff1e 	bx	lr

5000068c <enable_cache>:
5000068c:	e52db004 	push	{fp}		; (str fp, [sp, #-4]!)
50000690:	e28db000 	add	fp, sp, #0
50000694:	ee110f10 	mrc	15, 0, r0, cr1, cr0, {0}
50000698:	e3800004 	orr	r0, r0, #4
5000069c:	e3800a01 	orr	r0, r0, #4096	; 0x1000
500006a0:	ee010f10 	mcr	15, 0, r0, cr1, cr0, {0}
500006a4:	e28bd000 	add	sp, fp, #0
500006a8:	e8bd0800 	pop	{fp}
500006ac:	e12fff1e 	bx	lr

500006b0 <vector_start>:
500006b0:	e59ff018 	ldr	pc, [pc, #24]	; 500006d0 <_reset>
500006b4:	e59ff018 	ldr	pc, [pc, #24]	; 500006d4 <_undef>
500006b8:	e59ff018 	ldr	pc, [pc, #24]	; 500006d8 <_swi>
500006bc:	e59ff018 	ldr	pc, [pc, #24]	; 500006dc <_pabort>
500006c0:	e59ff018 	ldr	pc, [pc, #24]	; 500006e0 <_dabort>
500006c4:	e320f000 	nop	{0}
500006c8:	e59ff014 	ldr	pc, [pc, #20]	; 500006e4 <_irq>
500006cc:	e59ff014 	ldr	pc, [pc, #20]	; 500006e8 <_firq>

500006d0 <_reset>:
500006d0:	500006ec 	andpl	r0, r0, ip, ror #13

500006d4 <_undef>:
500006d4:	500006f0 	strdpl	r0, [r0], -r0

500006d8 <_swi>:
500006d8:	5000070c 	andpl	r0, r0, ip, lsl #14

500006dc <_pabort>:
500006dc:	50000740 	andpl	r0, r0, r0, asr #14

500006e0 <_dabort>:
500006e0:	50000760 	andpl	r0, r0, r0, ror #14

500006e4 <_irq>:
500006e4:	50000790 	mulpl	r0, r0, r7

500006e8 <_firq>:
500006e8:	500007b4 	undefined instruction 0x500007b4

500006ec <vector_end>:
500006ec:	eafffffe 	b	500006ec <vector_end>

500006f0 <undef>:
500006f0:	e3a0d47f 	mov	sp, #2130706432	; 0x7f000000
500006f4:	e92d5fff 	push	{r0, r1, r2, r3, r4, r5, r6, r7, r8, r9, sl, fp, ip, lr}
500006f8:	e10f1000 	mrs	r1, CPSR
500006fc:	e59f00b4 	ldr	r0, [pc, #180]	; 500007b8 <firq+0x4>
50000700:	e1a0e00f 	mov	lr, pc
50000704:	e59ff0b0 	ldr	pc, [pc, #176]	; 500007bc <firq+0x8>
50000708:	e8fd9fff 	ldm	sp!, {r0, r1, r2, r3, r4, r5, r6, r7, r8, r9, sl, fp, ip, pc}^

5000070c <swi>:
5000070c:	e92d5fff 	push	{r0, r1, r2, r3, r4, r5, r6, r7, r8, r9, sl, fp, ip, lr}
50000710:	e24e1004 	sub	r1, lr, #4
50000714:	e5911000 	ldr	r1, [r1]
50000718:	e3c114ff 	bic	r1, r1, #-16777216	; 0xff000000
5000071c:	e59f009c 	ldr	r0, [pc, #156]	; 500007c0 <firq+0xc>
50000720:	e1a0e00f 	mov	lr, pc
50000724:	e59ff090 	ldr	pc, [pc, #144]	; 500007bc <firq+0x8>
50000728:	e10f1000 	mrs	r1, CPSR
5000072c:	e59f0084 	ldr	r0, [pc, #132]	; 500007b8 <firq+0x4>
50000730:	e1a0e00f 	mov	lr, pc
50000734:	e59ff080 	ldr	pc, [pc, #128]	; 500007bc <firq+0x8>
50000738:	e8bd5fff 	pop	{r0, r1, r2, r3, r4, r5, r6, r7, r8, r9, sl, fp, ip, lr}
5000073c:	e1b0f00e 	movs	pc, lr

50000740 <pabort>:
50000740:	e3a0d47f 	mov	sp, #2130706432	; 0x7f000000
50000744:	e92d5fff 	push	{r0, r1, r2, r3, r4, r5, r6, r7, r8, r9, sl, fp, ip, lr}
50000748:	e10f1000 	mrs	r1, CPSR
5000074c:	e59f0064 	ldr	r0, [pc, #100]	; 500007b8 <firq+0x4>
50000750:	e1a0e00f 	mov	lr, pc
50000754:	e59ff060 	ldr	pc, [pc, #96]	; 500007bc <firq+0x8>
50000758:	e8bd5fff 	pop	{r0, r1, r2, r3, r4, r5, r6, r7, r8, r9, sl, fp, ip, lr}
5000075c:	e1b0f00e 	movs	pc, lr

50000760 <dabort>:
50000760:	e3a0d47f 	mov	sp, #2130706432	; 0x7f000000
50000764:	e92d5fff 	push	{r0, r1, r2, r3, r4, r5, r6, r7, r8, r9, sl, fp, ip, lr}
50000768:	e1a0100e 	mov	r1, lr
5000076c:	e59f0050 	ldr	r0, [pc, #80]	; 500007c4 <firq+0x10>
50000770:	e1a0e00f 	mov	lr, pc
50000774:	e59ff040 	ldr	pc, [pc, #64]	; 500007bc <firq+0x8>
50000778:	e10f1000 	mrs	r1, CPSR
5000077c:	e59f0034 	ldr	r0, [pc, #52]	; 500007b8 <firq+0x4>
50000780:	e1a0e00f 	mov	lr, pc
50000784:	e59ff030 	ldr	pc, [pc, #48]	; 500007bc <firq+0x8>
50000788:	e8bd5fff 	pop	{r0, r1, r2, r3, r4, r5, r6, r7, r8, r9, sl, fp, ip, lr}
5000078c:	e25ef004 	subs	pc, lr, #4

50000790 <irq>:
50000790:	e3a0d47f 	mov	sp, #2130706432	; 0x7f000000
50000794:	e92d5fff 	push	{r0, r1, r2, r3, r4, r5, r6, r7, r8, r9, sl, fp, ip, lr}
50000798:	e10f1000 	mrs	r1, CPSR
5000079c:	e59f0014 	ldr	r0, [pc, #20]	; 500007b8 <firq+0x4>
500007a0:	e1a0e00f 	mov	lr, pc
500007a4:	e59ff010 	ldr	pc, [pc, #16]	; 500007bc <firq+0x8>
500007a8:	eb0000db 	bl	50000b1c <do_irq>
500007ac:	e8bd5fff 	pop	{r0, r1, r2, r3, r4, r5, r6, r7, r8, r9, sl, fp, ip, lr}
500007b0:	e25ef004 	subs	pc, lr, #4

500007b4 <firq>:
500007b4:	eafffffe 	b	500007b4 <firq>
500007b8:	50001098 	mulpl	r0, r8, r0
500007bc:	43e11a2c 	mvnmi	r1, #180224	; 0x2c000
500007c0:	500010a4 	andpl	r1, r0, r4, lsr #1
500007c4:	500010bc 	strhpl	r1, [r0], -ip

500007c8 <do_reset>:
500007c8:	e52db004 	push	{fp}		; (str fp, [sp, #-4]!)
500007cc:	e28db000 	add	fp, sp, #0
500007d0:	e59f3018 	ldr	r3, [pc, #24]	; 500007f0 <do_reset+0x28>
500007d4:	e59f2014 	ldr	r2, [pc, #20]	; 500007f0 <do_reset+0x28>
500007d8:	e5922000 	ldr	r2, [r2]
500007dc:	e3822001 	orr	r2, r2, #1
500007e0:	e5832000 	str	r2, [r3]
500007e4:	e28bd000 	add	sp, fp, #0
500007e8:	e8bd0800 	pop	{fp}
500007ec:	e12fff1e 	bx	lr
500007f0:	10020400 	andne	r0, r2, r0, lsl #8

500007f4 <wdt_reset>:
500007f4:	e52db004 	push	{fp}		; (str fp, [sp, #-4]!)
500007f8:	e28db000 	add	fp, sp, #0
500007fc:	e24dd00c 	sub	sp, sp, #12
50000800:	e50b0008 	str	r0, [fp, #-8]
50000804:	e59f304c 	ldr	r3, [pc, #76]	; 50000858 <wdt_reset+0x64>
50000808:	e59f2048 	ldr	r2, [pc, #72]	; 50000858 <wdt_reset+0x64>
5000080c:	e5922000 	ldr	r2, [r2]
50000810:	e3c22601 	bic	r2, r2, #1048576	; 0x100000
50000814:	e5832000 	str	r2, [r3]
50000818:	e59f303c 	ldr	r3, [pc, #60]	; 5000085c <wdt_reset+0x68>
5000081c:	e59f2038 	ldr	r2, [pc, #56]	; 5000085c <wdt_reset+0x68>
50000820:	e5922000 	ldr	r2, [r2]
50000824:	e3c22601 	bic	r2, r2, #1048576	; 0x100000
50000828:	e5832000 	str	r2, [r3]
5000082c:	e59f302c 	ldr	r3, [pc, #44]	; 50000860 <wdt_reset+0x6c>
50000830:	e51b2008 	ldr	r2, [fp, #-8]
50000834:	e59f1028 	ldr	r1, [pc, #40]	; 50000864 <wdt_reset+0x70>
50000838:	e0020291 	mul	r2, r1, r2
5000083c:	e5832000 	str	r2, [r3]
50000840:	e59f3020 	ldr	r3, [pc, #32]	; 50000868 <wdt_reset+0x74>
50000844:	e59f2020 	ldr	r2, [pc, #32]	; 5000086c <wdt_reset+0x78>
50000848:	e5832000 	str	r2, [r3]
5000084c:	e28bd000 	add	sp, fp, #0
50000850:	e8bd0800 	pop	{fp}
50000854:	e12fff1e 	bx	lr
50000858:	10020408 	andne	r0, r2, r8, lsl #8
5000085c:	1002040c 	andne	r0, r2, ip, lsl #8
50000860:	10060008 	andne	r0, r6, r8
50000864:	00000bec 	andeq	r0, r0, ip, ror #23
50000868:	10060000 	andne	r0, r6, r0
5000086c:	0000ff39 	andeq	pc, r0, r9, lsr pc

50000870 <wdt_irq_init>:
50000870:	e52db004 	push	{fp}		; (str fp, [sp, #-4]!)
50000874:	e28db000 	add	fp, sp, #0
50000878:	e24dd00c 	sub	sp, sp, #12
5000087c:	e50b0008 	str	r0, [fp, #-8]
50000880:	e59f3038 	ldr	r3, [pc, #56]	; 500008c0 <wdt_irq_init+0x50>
50000884:	e51b2008 	ldr	r2, [fp, #-8]
50000888:	e59f1034 	ldr	r1, [pc, #52]	; 500008c4 <wdt_irq_init+0x54>
5000088c:	e0020291 	mul	r2, r1, r2
50000890:	e5832000 	str	r2, [r3]
50000894:	e59f302c 	ldr	r3, [pc, #44]	; 500008c8 <wdt_irq_init+0x58>
50000898:	e51b2008 	ldr	r2, [fp, #-8]
5000089c:	e59f1020 	ldr	r1, [pc, #32]	; 500008c4 <wdt_irq_init+0x54>
500008a0:	e0020291 	mul	r2, r1, r2
500008a4:	e5832000 	str	r2, [r3]
500008a8:	e59f301c 	ldr	r3, [pc, #28]	; 500008cc <wdt_irq_init+0x5c>
500008ac:	e59f201c 	ldr	r2, [pc, #28]	; 500008d0 <wdt_irq_init+0x60>
500008b0:	e5832000 	str	r2, [r3]
500008b4:	e28bd000 	add	sp, fp, #0
500008b8:	e8bd0800 	pop	{fp}
500008bc:	e12fff1e 	bx	lr
500008c0:	10060004 	andne	r0, r6, r4
500008c4:	00000bec 	andeq	r0, r0, ip, ror #23
500008c8:	10060008 	andne	r0, r6, r8
500008cc:	10060000 	andne	r0, r6, r0
500008d0:	0000ff3c 	andeq	pc, r0, ip, lsr pc

500008d4 <wdt_feed>:
500008d4:	e52db004 	push	{fp}		; (str fp, [sp, #-4]!)
500008d8:	e28db000 	add	fp, sp, #0
500008dc:	e24dd00c 	sub	sp, sp, #12
500008e0:	e50b0008 	str	r0, [fp, #-8]
500008e4:	e59f3018 	ldr	r3, [pc, #24]	; 50000904 <wdt_feed+0x30>
500008e8:	e51b2008 	ldr	r2, [fp, #-8]
500008ec:	e59f1014 	ldr	r1, [pc, #20]	; 50000908 <wdt_feed+0x34>
500008f0:	e0020291 	mul	r2, r1, r2
500008f4:	e5832000 	str	r2, [r3]
500008f8:	e28bd000 	add	sp, fp, #0
500008fc:	e8bd0800 	pop	{fp}
50000900:	e12fff1e 	bx	lr
50000904:	10060008 	andne	r0, r6, r8
50000908:	00000bec 	andeq	r0, r0, ip, ror #23

5000090c <do_wdt>:
5000090c:	e92d4800 	push	{fp, lr}
50000910:	e28db004 	add	fp, sp, #4
50000914:	e59f3014 	ldr	r3, [pc, #20]	; 50000930 <do_wdt+0x24>
50000918:	e59f0014 	ldr	r0, [pc, #20]	; 50000934 <do_wdt+0x28>
5000091c:	e12fff33 	blx	r3
50000920:	e59f3010 	ldr	r3, [pc, #16]	; 50000938 <do_wdt+0x2c>
50000924:	e3a02000 	mov	r2, #0
50000928:	e5832000 	str	r2, [r3]
5000092c:	e8bd8800 	pop	{fp, pc}
50000930:	43e11a2c 	mvnmi	r1, #180224	; 0x2c000
50000934:	500010c8 	andpl	r1, r0, r8, asr #1
50000938:	1006000c 	andne	r0, r6, ip

5000093c <enable_cpu>:
5000093c:	e52db004 	push	{fp}		; (str fp, [sp, #-4]!)
50000940:	e28db000 	add	fp, sp, #0
50000944:	e24dd00c 	sub	sp, sp, #12
50000948:	e50b0008 	str	r0, [fp, #-8]
5000094c:	e59f3038 	ldr	r3, [pc, #56]	; 5000098c <enable_cpu+0x50>
50000950:	e59f2034 	ldr	r2, [pc, #52]	; 5000098c <enable_cpu+0x50>
50000954:	e5922000 	ldr	r2, [r2]
50000958:	e3822001 	orr	r2, r2, #1
5000095c:	e5832000 	str	r2, [r3]
50000960:	e59f3028 	ldr	r3, [pc, #40]	; 50000990 <enable_cpu+0x54>
50000964:	e59f2024 	ldr	r2, [pc, #36]	; 50000990 <enable_cpu+0x54>
50000968:	e5922000 	ldr	r2, [r2]
5000096c:	e3c210ff 	bic	r1, r2, #255	; 0xff
50000970:	e51b2008 	ldr	r2, [fp, #-8]
50000974:	e20220ff 	and	r2, r2, #255	; 0xff
50000978:	e1812002 	orr	r2, r1, r2
5000097c:	e5832000 	str	r2, [r3]
50000980:	e28bd000 	add	sp, fp, #0
50000984:	e8bd0800 	pop	{fp}
50000988:	e12fff1e 	bx	lr
5000098c:	10480000 	subne	r0, r8, r0
50000990:	10480004 	subne	r0, r8, r4

50000994 <enable_irq>:
50000994:	e52db004 	push	{fp}		; (str fp, [sp, #-4]!)
50000998:	e28db000 	add	fp, sp, #0
5000099c:	e24dd00c 	sub	sp, sp, #12
500009a0:	e50b0008 	str	r0, [fp, #-8]
500009a4:	e50b100c 	str	r1, [fp, #-12]
500009a8:	e59f312c 	ldr	r3, [pc, #300]	; 50000adc <enable_irq+0x148>
500009ac:	e59f2128 	ldr	r2, [pc, #296]	; 50000adc <enable_irq+0x148>
500009b0:	e5922000 	ldr	r2, [r2]
500009b4:	e3822001 	orr	r2, r2, #1
500009b8:	e5832000 	str	r2, [r3]
500009bc:	e51b3008 	ldr	r3, [fp, #-8]
500009c0:	e1a022a3 	lsr	r2, r3, #5
500009c4:	e59f3114 	ldr	r3, [pc, #276]	; 50000ae0 <enable_irq+0x14c>
500009c8:	e0823003 	add	r3, r2, r3
500009cc:	e1a03103 	lsl	r3, r3, #2
500009d0:	e1a01003 	mov	r1, r3
500009d4:	e59f3104 	ldr	r3, [pc, #260]	; 50000ae0 <enable_irq+0x14c>
500009d8:	e0823003 	add	r3, r2, r3
500009dc:	e1a03103 	lsl	r3, r3, #2
500009e0:	e5932000 	ldr	r2, [r3]
500009e4:	e51b3008 	ldr	r3, [fp, #-8]
500009e8:	e203301f 	and	r3, r3, #31
500009ec:	e3a00001 	mov	r0, #1
500009f0:	e1a03310 	lsl	r3, r0, r3
500009f4:	e1823003 	orr	r3, r2, r3
500009f8:	e5813000 	str	r3, [r1]
500009fc:	e51b3008 	ldr	r3, [fp, #-8]
50000a00:	e1a02123 	lsr	r2, r3, #2
50000a04:	e59f30d8 	ldr	r3, [pc, #216]	; 50000ae4 <enable_irq+0x150>
50000a08:	e0823003 	add	r3, r2, r3
50000a0c:	e1a03103 	lsl	r3, r3, #2
50000a10:	e1a02003 	mov	r2, r3
50000a14:	e51b3008 	ldr	r3, [fp, #-8]
50000a18:	e1a01123 	lsr	r1, r3, #2
50000a1c:	e59f30c0 	ldr	r3, [pc, #192]	; 50000ae4 <enable_irq+0x150>
50000a20:	e0813003 	add	r3, r1, r3
50000a24:	e1a03103 	lsl	r3, r3, #2
50000a28:	e5931000 	ldr	r1, [r3]
50000a2c:	e51b3008 	ldr	r3, [fp, #-8]
50000a30:	e2033003 	and	r3, r3, #3
50000a34:	e1a03183 	lsl	r3, r3, #3
50000a38:	e3a000ff 	mov	r0, #255	; 0xff
50000a3c:	e1a03310 	lsl	r3, r0, r3
50000a40:	e1e03003 	mvn	r3, r3
50000a44:	e0011003 	and	r1, r1, r3
50000a48:	e51b300c 	ldr	r3, [fp, #-12]
50000a4c:	e20300ff 	and	r0, r3, #255	; 0xff
50000a50:	e51b3008 	ldr	r3, [fp, #-8]
50000a54:	e2033003 	and	r3, r3, #3
50000a58:	e1a03183 	lsl	r3, r3, #3
50000a5c:	e1a03310 	lsl	r3, r0, r3
50000a60:	e1813003 	orr	r3, r1, r3
50000a64:	e5823000 	str	r3, [r2]
50000a68:	e51b3008 	ldr	r3, [fp, #-8]
50000a6c:	e1a02123 	lsr	r2, r3, #2
50000a70:	e59f3070 	ldr	r3, [pc, #112]	; 50000ae8 <enable_irq+0x154>
50000a74:	e0823003 	add	r3, r2, r3
50000a78:	e1a03103 	lsl	r3, r3, #2
50000a7c:	e1a02003 	mov	r2, r3
50000a80:	e51b3008 	ldr	r3, [fp, #-8]
50000a84:	e1a01123 	lsr	r1, r3, #2
50000a88:	e59f3058 	ldr	r3, [pc, #88]	; 50000ae8 <enable_irq+0x154>
50000a8c:	e0813003 	add	r3, r1, r3
50000a90:	e1a03103 	lsl	r3, r3, #2
50000a94:	e5931000 	ldr	r1, [r3]
50000a98:	e51b3008 	ldr	r3, [fp, #-8]
50000a9c:	e2033003 	and	r3, r3, #3
50000aa0:	e1a03183 	lsl	r3, r3, #3
50000aa4:	e3a000ff 	mov	r0, #255	; 0xff
50000aa8:	e1a03310 	lsl	r3, r0, r3
50000aac:	e1e03003 	mvn	r3, r3
50000ab0:	e0011003 	and	r1, r1, r3
50000ab4:	e51b3008 	ldr	r3, [fp, #-8]
50000ab8:	e2033003 	and	r3, r3, #3
50000abc:	e1a03183 	lsl	r3, r3, #3
50000ac0:	e3a00001 	mov	r0, #1
50000ac4:	e1a03310 	lsl	r3, r0, r3
50000ac8:	e1813003 	orr	r3, r1, r3
50000acc:	e5823000 	str	r3, [r2]
50000ad0:	e28bd000 	add	sp, fp, #0
50000ad4:	e8bd0800 	pop	{fp}
50000ad8:	e12fff1e 	bx	lr
50000adc:	10490000 	subne	r0, r9, r0
50000ae0:	04124040 	ldreq	r4, [r2], #-64	; 0x40
50000ae4:	04124100 	ldreq	r4, [r2], #-256	; 0x100
50000ae8:	04124200 	ldreq	r4, [r2], #-512	; 0x200

50000aec <send_sgi>:
50000aec:	e52db004 	push	{fp}		; (str fp, [sp, #-4]!)
50000af0:	e28db000 	add	fp, sp, #0
50000af4:	e24dd00c 	sub	sp, sp, #12
50000af8:	e50b0008 	str	r0, [fp, #-8]
50000afc:	e59f3014 	ldr	r3, [pc, #20]	; 50000b18 <send_sgi+0x2c>
50000b00:	e51b2008 	ldr	r2, [fp, #-8]
50000b04:	e3822801 	orr	r2, r2, #65536	; 0x10000
50000b08:	e5832000 	str	r2, [r3]
50000b0c:	e28bd000 	add	sp, fp, #0
50000b10:	e8bd0800 	pop	{fp}
50000b14:	e12fff1e 	bx	lr
50000b18:	10490f00 	subne	r0, r9, r0, lsl #30

50000b1c <do_irq>:
50000b1c:	e92d4800 	push	{fp, lr}
50000b20:	e28db004 	add	fp, sp, #4
50000b24:	e24dd008 	sub	sp, sp, #8
50000b28:	e59f3094 	ldr	r3, [pc, #148]	; 50000bc4 <do_irq+0xa8>
50000b2c:	e5933000 	ldr	r3, [r3]
50000b30:	e1a03983 	lsl	r3, r3, #19
50000b34:	e1a039a3 	lsr	r3, r3, #19
50000b38:	e50b3008 	str	r3, [fp, #-8]
50000b3c:	e51b3008 	ldr	r3, [fp, #-8]
50000b40:	e1a03523 	lsr	r3, r3, #10
50000b44:	e2032007 	and	r2, r3, #7
50000b48:	e51b3008 	ldr	r3, [fp, #-8]
50000b4c:	e1a03b03 	lsl	r3, r3, #22
50000b50:	e1a03b23 	lsr	r3, r3, #22
50000b54:	e59fc06c 	ldr	ip, [pc, #108]	; 50000bc8 <do_irq+0xac>
50000b58:	e59f006c 	ldr	r0, [pc, #108]	; 50000bcc <do_irq+0xb0>
50000b5c:	e1a01002 	mov	r1, r2
50000b60:	e1a02003 	mov	r2, r3
50000b64:	e12fff3c 	blx	ip
50000b68:	e59f1060 	ldr	r1, [pc, #96]	; 50000bd0 <do_irq+0xb4>
50000b6c:	e59f305c 	ldr	r3, [pc, #92]	; 50000bd0 <do_irq+0xb4>
50000b70:	e5933000 	ldr	r3, [r3]
50000b74:	e3c32d7f 	bic	r2, r3, #8128	; 0x1fc0
50000b78:	e3c2203f 	bic	r2, r2, #63	; 0x3f
50000b7c:	e51b3008 	ldr	r3, [fp, #-8]
50000b80:	e1a03983 	lsl	r3, r3, #19
50000b84:	e1a039a3 	lsr	r3, r3, #19
50000b88:	e1823003 	orr	r3, r2, r3
50000b8c:	e5813000 	str	r3, [r1]
50000b90:	e51b3008 	ldr	r3, [fp, #-8]
50000b94:	e1a03b03 	lsl	r3, r3, #22
50000b98:	e1a03b23 	lsr	r3, r3, #22
50000b9c:	e3530049 	cmp	r3, #73	; 0x49
50000ba0:	0a000003 	beq	50000bb4 <do_irq+0x98>
50000ba4:	e353004b 	cmp	r3, #75	; 0x4b
50000ba8:	1a000003 	bne	50000bbc <do_irq+0xa0>
50000bac:	ebffff56 	bl	5000090c <do_wdt>
50000bb0:	ea000001 	b	50000bbc <do_irq+0xa0>
50000bb4:	eb000034 	bl	50000c8c <do_pwm_timer4>
50000bb8:	e1a00000 	nop			; (mov r0, r0)
50000bbc:	e24bd004 	sub	sp, fp, #4
50000bc0:	e8bd8800 	pop	{fp, pc}
50000bc4:	1048000c 	subne	r0, r8, ip
50000bc8:	43e11a2c 	mvnmi	r1, #180224	; 0x2c000
50000bcc:	500010dc 	ldrdpl	r1, [r0], -ip
50000bd0:	10480010 	subne	r0, r8, r0, lsl r0

50000bd4 <pwm_timer4_irq_init>:
50000bd4:	e52db004 	push	{fp}		; (str fp, [sp, #-4]!)
50000bd8:	e28db000 	add	fp, sp, #0
50000bdc:	e24dd00c 	sub	sp, sp, #12
50000be0:	e50b0008 	str	r0, [fp, #-8]
50000be4:	e59f3088 	ldr	r3, [pc, #136]	; 50000c74 <pwm_timer4_irq_init+0xa0>
50000be8:	e59f2084 	ldr	r2, [pc, #132]	; 50000c74 <pwm_timer4_irq_init+0xa0>
50000bec:	e5922000 	ldr	r2, [r2]
50000bf0:	e3c22cff 	bic	r2, r2, #65280	; 0xff00
50000bf4:	e3822cf9 	orr	r2, r2, #63744	; 0xf900
50000bf8:	e5832000 	str	r2, [r3]
50000bfc:	e59f3074 	ldr	r3, [pc, #116]	; 50000c78 <pwm_timer4_irq_init+0xa4>
50000c00:	e59f2070 	ldr	r2, [pc, #112]	; 50000c78 <pwm_timer4_irq_init+0xa4>
50000c04:	e5922000 	ldr	r2, [r2]
50000c08:	e3c2280f 	bic	r2, r2, #983040	; 0xf0000
50000c0c:	e3822802 	orr	r2, r2, #131072	; 0x20000
50000c10:	e5832000 	str	r2, [r3]
50000c14:	e59f3060 	ldr	r3, [pc, #96]	; 50000c7c <pwm_timer4_irq_init+0xa8>
50000c18:	e59f205c 	ldr	r2, [pc, #92]	; 50000c7c <pwm_timer4_irq_init+0xa8>
50000c1c:	e5922000 	ldr	r2, [r2]
50000c20:	e3822010 	orr	r2, r2, #16
50000c24:	e5832000 	str	r2, [r3]
50000c28:	e59f3050 	ldr	r3, [pc, #80]	; 50000c80 <pwm_timer4_irq_init+0xac>
50000c2c:	e51b2008 	ldr	r2, [fp, #-8]
50000c30:	e59f104c 	ldr	r1, [pc, #76]	; 50000c84 <pwm_timer4_irq_init+0xb0>
50000c34:	e0020291 	mul	r2, r1, r2
50000c38:	e5832000 	str	r2, [r3]
50000c3c:	e59f3044 	ldr	r3, [pc, #68]	; 50000c88 <pwm_timer4_irq_init+0xb4>
50000c40:	e59f2040 	ldr	r2, [pc, #64]	; 50000c88 <pwm_timer4_irq_init+0xb4>
50000c44:	e5922000 	ldr	r2, [r2]
50000c48:	e3822602 	orr	r2, r2, #2097152	; 0x200000
50000c4c:	e5832000 	str	r2, [r3]
50000c50:	e59f3030 	ldr	r3, [pc, #48]	; 50000c88 <pwm_timer4_irq_init+0xb4>
50000c54:	e59f202c 	ldr	r2, [pc, #44]	; 50000c88 <pwm_timer4_irq_init+0xb4>
50000c58:	e5922000 	ldr	r2, [r2]
50000c5c:	e3c22607 	bic	r2, r2, #7340032	; 0x700000
50000c60:	e3822605 	orr	r2, r2, #5242880	; 0x500000
50000c64:	e5832000 	str	r2, [r3]
50000c68:	e28bd000 	add	sp, fp, #0
50000c6c:	e8bd0800 	pop	{fp}
50000c70:	e12fff1e 	bx	lr
50000c74:	139d0000 	orrsne	r0, sp, #0
50000c78:	139d0004 	orrsne	r0, sp, #4
50000c7c:	139d0044 	orrsne	r0, sp, #68	; 0x44
50000c80:	139d003c 	orrsne	r0, sp, #60	; 0x3c
50000c84:	000186a0 	andeq	r8, r1, r0, lsr #13
50000c88:	139d0008 	orrsne	r0, sp, #8

50000c8c <do_pwm_timer4>:
50000c8c:	e92d4800 	push	{fp, lr}
50000c90:	e28db004 	add	fp, sp, #4
50000c94:	e24dd008 	sub	sp, sp, #8
50000c98:	e59f3024 	ldr	r3, [pc, #36]	; 50000cc4 <do_pwm_timer4+0x38>
50000c9c:	e59f0024 	ldr	r0, [pc, #36]	; 50000cc8 <do_pwm_timer4+0x3c>
50000ca0:	e12fff33 	blx	r3
50000ca4:	ebfffd97 	bl	50000308 <buzzer_on>
50000ca8:	e59f301c 	ldr	r3, [pc, #28]	; 50000ccc <do_pwm_timer4+0x40>
50000cac:	e59f2018 	ldr	r2, [pc, #24]	; 50000ccc <do_pwm_timer4+0x40>
50000cb0:	e5922000 	ldr	r2, [r2]
50000cb4:	e3822c02 	orr	r2, r2, #512	; 0x200
50000cb8:	e5832000 	str	r2, [r3]
50000cbc:	e24bd004 	sub	sp, fp, #4
50000cc0:	e8bd8800 	pop	{fp, pc}
50000cc4:	43e11a2c 	mvnmi	r1, #180224	; 0x2c000
50000cc8:	500010f4 	strdpl	r1, [r0], -r4
50000ccc:	139d0044 	orrsne	r0, sp, #68	; 0x44

50000cd0 <memset>:
50000cd0:	e1a03000 	mov	r3, r0
50000cd4:	e3520008 	cmp	r2, #8
50000cd8:	3a000011 	bcc	50000d24 <memset+0x54>
50000cdc:	e3130003 	tst	r3, #3
50000ce0:	14c31001 	strbne	r1, [r3], #1
50000ce4:	12422001 	subne	r2, r2, #1
50000ce8:	1afffffb 	bne	50000cdc <memset+0xc>
50000cec:	e20110ff 	and	r1, r1, #255	; 0xff
50000cf0:	e1811401 	orr	r1, r1, r1, lsl #8
50000cf4:	e1811801 	orr	r1, r1, r1, lsl #16
50000cf8:	e1a0c001 	mov	ip, r1
50000cfc:	e2522008 	subs	r2, r2, #8
50000d00:	28a31002 	stmiacs	r3!, {r1, ip}
50000d04:	22522008 	subscs	r2, r2, #8
50000d08:	28a31002 	stmiacs	r3!, {r1, ip}
50000d0c:	22522008 	subscs	r2, r2, #8
50000d10:	28a31002 	stmiacs	r3!, {r1, ip}
50000d14:	22522008 	subscs	r2, r2, #8
50000d18:	28a31002 	stmiacs	r3!, {r1, ip}
50000d1c:	2afffff6 	bcs	50000cfc <memset+0x2c>
50000d20:	e2022007 	and	r2, r2, #7
50000d24:	e2522001 	subs	r2, r2, #1
50000d28:	24c31001 	strbcs	r1, [r3], #1
50000d2c:	22522001 	subscs	r2, r2, #1
50000d30:	24c31001 	strbcs	r1, [r3], #1
50000d34:	22522001 	subscs	r2, r2, #1
50000d38:	24c31001 	strbcs	r1, [r3], #1
50000d3c:	22522001 	subscs	r2, r2, #1
50000d40:	24c31001 	strbcs	r1, [r3], #1
50000d44:	2afffff6 	bcs	50000d24 <memset+0x54>
50000d48:	e12fff1e 	bx	lr
50000d4c:	e320f000 	nop	{0}

50000d50 <memcpy>:
50000d50:	e92d4011 	push	{r0, r4, lr}
50000d54:	e2522004 	subs	r2, r2, #4
50000d58:	ba00002b 	blt	50000e0c <memcpy+0xbc>
50000d5c:	e210c003 	ands	ip, r0, #3
50000d60:	f5d1f000 	pld	[r1]
50000d64:	1a000030 	bne	50000e2c <memcpy+0xdc>
50000d68:	e211c003 	ands	ip, r1, #3
50000d6c:	1a00003a 	bne	50000e5c <memcpy+0x10c>
50000d70:	e252201c 	subs	r2, r2, #28
50000d74:	e92d01e0 	push	{r5, r6, r7, r8}
50000d78:	ba00000c 	blt	50000db0 <memcpy+0x60>
50000d7c:	f5d1f000 	pld	[r1]
50000d80:	e2522060 	subs	r2, r2, #96	; 0x60
50000d84:	f5d1f01c 	pld	[r1, #28]
50000d88:	ba000002 	blt	50000d98 <memcpy+0x48>
50000d8c:	f5d1f03c 	pld	[r1, #60]	; 0x3c
50000d90:	f5d1f05c 	pld	[r1, #92]	; 0x5c
50000d94:	f5d1f07c 	pld	[r1, #124]	; 0x7c
50000d98:	e8b151f8 	ldm	r1!, {r3, r4, r5, r6, r7, r8, ip, lr}
50000d9c:	e2522020 	subs	r2, r2, #32
50000da0:	e8a051f8 	stmia	r0!, {r3, r4, r5, r6, r7, r8, ip, lr}
50000da4:	aafffffa 	bge	50000d94 <memcpy+0x44>
50000da8:	e3720060 	cmn	r2, #96	; 0x60
50000dac:	aafffff9 	bge	50000d98 <memcpy+0x48>
50000db0:	e212c01c 	ands	ip, r2, #28
50000db4:	e26cc020 	rsb	ip, ip, #32
50000db8:	108ff00c 	addne	pc, pc, ip
50000dbc:	ea000011 	b	50000e08 <memcpy+0xb8>
50000dc0:	e320f000 	nop	{0}
50000dc4:	e4913004 	ldr	r3, [r1], #4
50000dc8:	e4914004 	ldr	r4, [r1], #4
50000dcc:	e4915004 	ldr	r5, [r1], #4
50000dd0:	e4916004 	ldr	r6, [r1], #4
50000dd4:	e4917004 	ldr	r7, [r1], #4
50000dd8:	e4918004 	ldr	r8, [r1], #4
50000ddc:	e491e004 	ldr	lr, [r1], #4
50000de0:	e08ff00c 	add	pc, pc, ip
50000de4:	e320f000 	nop	{0}
50000de8:	e320f000 	nop	{0}
50000dec:	e4803004 	str	r3, [r0], #4
50000df0:	e4804004 	str	r4, [r0], #4
50000df4:	e4805004 	str	r5, [r0], #4
50000df8:	e4806004 	str	r6, [r0], #4
50000dfc:	e4807004 	str	r7, [r0], #4
50000e00:	e4808004 	str	r8, [r0], #4
50000e04:	e480e004 	str	lr, [r0], #4
50000e08:	e8bd01e0 	pop	{r5, r6, r7, r8}
50000e0c:	e1b02f82 	lsls	r2, r2, #31
50000e10:	14d13001 	ldrbne	r3, [r1], #1
50000e14:	24d14001 	ldrbcs	r4, [r1], #1
50000e18:	25d1c000 	ldrbcs	ip, [r1]
50000e1c:	14c03001 	strbne	r3, [r0], #1
50000e20:	24c04001 	strbcs	r4, [r0], #1
50000e24:	25c0c000 	strbcs	ip, [r0]
50000e28:	e8bd8011 	pop	{r0, r4, pc}
50000e2c:	e26cc004 	rsb	ip, ip, #4
50000e30:	e35c0002 	cmp	ip, #2
50000e34:	c4d13001 	ldrbgt	r3, [r1], #1
50000e38:	a4d14001 	ldrbge	r4, [r1], #1
50000e3c:	e4d1e001 	ldrb	lr, [r1], #1
50000e40:	c4c03001 	strbgt	r3, [r0], #1
50000e44:	a4c04001 	strbge	r4, [r0], #1
50000e48:	e052200c 	subs	r2, r2, ip
50000e4c:	e4c0e001 	strb	lr, [r0], #1
50000e50:	baffffed 	blt	50000e0c <memcpy+0xbc>
50000e54:	e211c003 	ands	ip, r1, #3
50000e58:	0affffc4 	beq	50000d70 <memcpy+0x20>
50000e5c:	e3c11003 	bic	r1, r1, #3
50000e60:	e35c0002 	cmp	ip, #2
50000e64:	e491e004 	ldr	lr, [r1], #4
50000e68:	0a00002c 	beq	50000f20 <memcpy+0x1d0>
50000e6c:	ca000057 	bgt	50000fd0 <memcpy+0x280>
50000e70:	e252201c 	subs	r2, r2, #28
50000e74:	ba00001f 	blt	50000ef8 <memcpy+0x1a8>
50000e78:	e92d03e0 	push	{r5, r6, r7, r8, r9}
50000e7c:	f5d1f000 	pld	[r1]
50000e80:	e2522060 	subs	r2, r2, #96	; 0x60
50000e84:	f5d1f01c 	pld	[r1, #28]
50000e88:	ba000002 	blt	50000e98 <memcpy+0x148>
50000e8c:	f5d1f03c 	pld	[r1, #60]	; 0x3c
50000e90:	f5d1f05c 	pld	[r1, #92]	; 0x5c
50000e94:	f5d1f07c 	pld	[r1, #124]	; 0x7c
50000e98:	e8b100f0 	ldm	r1!, {r4, r5, r6, r7}
50000e9c:	e1a0342e 	lsr	r3, lr, #8
50000ea0:	e2522020 	subs	r2, r2, #32
50000ea4:	e8b15300 	ldm	r1!, {r8, r9, ip, lr}
50000ea8:	e1833c04 	orr	r3, r3, r4, lsl #24
50000eac:	e1a04424 	lsr	r4, r4, #8
50000eb0:	e1844c05 	orr	r4, r4, r5, lsl #24
50000eb4:	e1a05425 	lsr	r5, r5, #8
50000eb8:	e1855c06 	orr	r5, r5, r6, lsl #24
50000ebc:	e1a06426 	lsr	r6, r6, #8
50000ec0:	e1866c07 	orr	r6, r6, r7, lsl #24
50000ec4:	e1a07427 	lsr	r7, r7, #8
50000ec8:	e1877c08 	orr	r7, r7, r8, lsl #24
50000ecc:	e1a08428 	lsr	r8, r8, #8
50000ed0:	e1888c09 	orr	r8, r8, r9, lsl #24
50000ed4:	e1a09429 	lsr	r9, r9, #8
50000ed8:	e1899c0c 	orr	r9, r9, ip, lsl #24
50000edc:	e1a0c42c 	lsr	ip, ip, #8
50000ee0:	e18ccc0e 	orr	ip, ip, lr, lsl #24
50000ee4:	e8a013f8 	stmia	r0!, {r3, r4, r5, r6, r7, r8, r9, ip}
50000ee8:	aaffffe9 	bge	50000e94 <memcpy+0x144>
50000eec:	e3720060 	cmn	r2, #96	; 0x60
50000ef0:	aaffffe8 	bge	50000e98 <memcpy+0x148>
50000ef4:	e8bd03e0 	pop	{r5, r6, r7, r8, r9}
50000ef8:	e212c01c 	ands	ip, r2, #28
50000efc:	0a000005 	beq	50000f18 <memcpy+0x1c8>
50000f00:	e1a0342e 	lsr	r3, lr, #8
50000f04:	e491e004 	ldr	lr, [r1], #4
50000f08:	e25cc004 	subs	ip, ip, #4
50000f0c:	e1833c0e 	orr	r3, r3, lr, lsl #24
50000f10:	e4803004 	str	r3, [r0], #4
50000f14:	cafffff9 	bgt	50000f00 <memcpy+0x1b0>
50000f18:	e2411003 	sub	r1, r1, #3
50000f1c:	eaffffba 	b	50000e0c <memcpy+0xbc>
50000f20:	e252201c 	subs	r2, r2, #28
50000f24:	ba00001f 	blt	50000fa8 <memcpy+0x258>
50000f28:	e92d03e0 	push	{r5, r6, r7, r8, r9}
50000f2c:	f5d1f000 	pld	[r1]
50000f30:	e2522060 	subs	r2, r2, #96	; 0x60
50000f34:	f5d1f01c 	pld	[r1, #28]
50000f38:	ba000002 	blt	50000f48 <memcpy+0x1f8>
50000f3c:	f5d1f03c 	pld	[r1, #60]	; 0x3c
50000f40:	f5d1f05c 	pld	[r1, #92]	; 0x5c
50000f44:	f5d1f07c 	pld	[r1, #124]	; 0x7c
50000f48:	e8b100f0 	ldm	r1!, {r4, r5, r6, r7}
50000f4c:	e1a0382e 	lsr	r3, lr, #16
50000f50:	e2522020 	subs	r2, r2, #32
50000f54:	e8b15300 	ldm	r1!, {r8, r9, ip, lr}
50000f58:	e1833804 	orr	r3, r3, r4, lsl #16
50000f5c:	e1a04824 	lsr	r4, r4, #16
50000f60:	e1844805 	orr	r4, r4, r5, lsl #16
50000f64:	e1a05825 	lsr	r5, r5, #16
50000f68:	e1855806 	orr	r5, r5, r6, lsl #16
50000f6c:	e1a06826 	lsr	r6, r6, #16
50000f70:	e1866807 	orr	r6, r6, r7, lsl #16
50000f74:	e1a07827 	lsr	r7, r7, #16
50000f78:	e1877808 	orr	r7, r7, r8, lsl #16
50000f7c:	e1a08828 	lsr	r8, r8, #16
50000f80:	e1888809 	orr	r8, r8, r9, lsl #16
50000f84:	e1a09829 	lsr	r9, r9, #16
50000f88:	e189980c 	orr	r9, r9, ip, lsl #16
50000f8c:	e1a0c82c 	lsr	ip, ip, #16
50000f90:	e18cc80e 	orr	ip, ip, lr, lsl #16
50000f94:	e8a013f8 	stmia	r0!, {r3, r4, r5, r6, r7, r8, r9, ip}
50000f98:	aaffffe9 	bge	50000f44 <memcpy+0x1f4>
50000f9c:	e3720060 	cmn	r2, #96	; 0x60
50000fa0:	aaffffe8 	bge	50000f48 <memcpy+0x1f8>
50000fa4:	e8bd03e0 	pop	{r5, r6, r7, r8, r9}
50000fa8:	e212c01c 	ands	ip, r2, #28
50000fac:	0a000005 	beq	50000fc8 <memcpy+0x278>
50000fb0:	e1a0382e 	lsr	r3, lr, #16
50000fb4:	e491e004 	ldr	lr, [r1], #4
50000fb8:	e25cc004 	subs	ip, ip, #4
50000fbc:	e183380e 	orr	r3, r3, lr, lsl #16
50000fc0:	e4803004 	str	r3, [r0], #4
50000fc4:	cafffff9 	bgt	50000fb0 <memcpy+0x260>
50000fc8:	e2411002 	sub	r1, r1, #2
50000fcc:	eaffff8e 	b	50000e0c <memcpy+0xbc>
50000fd0:	e252201c 	subs	r2, r2, #28
50000fd4:	ba00001f 	blt	50001058 <memcpy+0x308>
50000fd8:	e92d03e0 	push	{r5, r6, r7, r8, r9}
50000fdc:	f5d1f000 	pld	[r1]
50000fe0:	e2522060 	subs	r2, r2, #96	; 0x60
50000fe4:	f5d1f01c 	pld	[r1, #28]
50000fe8:	ba000002 	blt	50000ff8 <memcpy+0x2a8>
50000fec:	f5d1f03c 	pld	[r1, #60]	; 0x3c
50000ff0:	f5d1f05c 	pld	[r1, #92]	; 0x5c
50000ff4:	f5d1f07c 	pld	[r1, #124]	; 0x7c
50000ff8:	e8b100f0 	ldm	r1!, {r4, r5, r6, r7}
50000ffc:	e1a03c2e 	lsr	r3, lr, #24
50001000:	e2522020 	subs	r2, r2, #32
50001004:	e8b15300 	ldm	r1!, {r8, r9, ip, lr}
50001008:	e1833404 	orr	r3, r3, r4, lsl #8
5000100c:	e1a04c24 	lsr	r4, r4, #24
50001010:	e1844405 	orr	r4, r4, r5, lsl #8
50001014:	e1a05c25 	lsr	r5, r5, #24
50001018:	e1855406 	orr	r5, r5, r6, lsl #8
5000101c:	e1a06c26 	lsr	r6, r6, #24
50001020:	e1866407 	orr	r6, r6, r7, lsl #8
50001024:	e1a07c27 	lsr	r7, r7, #24
50001028:	e1877408 	orr	r7, r7, r8, lsl #8
5000102c:	e1a08c28 	lsr	r8, r8, #24
50001030:	e1888409 	orr	r8, r8, r9, lsl #8
50001034:	e1a09c29 	lsr	r9, r9, #24
50001038:	e189940c 	orr	r9, r9, ip, lsl #8
5000103c:	e1a0cc2c 	lsr	ip, ip, #24
50001040:	e18cc40e 	orr	ip, ip, lr, lsl #8
50001044:	e8a013f8 	stmia	r0!, {r3, r4, r5, r6, r7, r8, r9, ip}
50001048:	aaffffe9 	bge	50000ff4 <memcpy+0x2a4>
5000104c:	e3720060 	cmn	r2, #96	; 0x60
50001050:	aaffffe8 	bge	50000ff8 <memcpy+0x2a8>
50001054:	e8bd03e0 	pop	{r5, r6, r7, r8, r9}
50001058:	e212c01c 	ands	ip, r2, #28
5000105c:	0a000005 	beq	50001078 <memcpy+0x328>
50001060:	e1a03c2e 	lsr	r3, lr, #24
50001064:	e491e004 	ldr	lr, [r1], #4
50001068:	e25cc004 	subs	ip, ip, #4
5000106c:	e183340e 	orr	r3, r3, lr, lsl #8
50001070:	e4803004 	str	r3, [r0], #4
50001074:	cafffff9 	bgt	50001060 <memcpy+0x310>
50001078:	e2411001 	sub	r1, r1, #1
5000107c:	eaffff62 	b	50000e0c <memcpy+0xbc>

Disassembly of section .rodata:

50001080 <.rodata>:
50001080:	6e69616d 	powvsez	f6, f1, #5.0
50001084:	61747320 	cmnvs	r4, r0, lsr #6
50001088:	000a7472 	andeq	r7, sl, r2, ror r4
5000108c:	6e69616d 	powvsez	f6, f1, #5.0
50001090:	646e6520 	strbtvs	r6, [lr], #-1312	; 0x520
50001094:	0000000a 	andeq	r0, r0, sl
50001098:	72737063 	rsbsvc	r7, r3, #99	; 0x63
5000109c:	25203a20 	strcs	r3, [r0, #-2592]!	; 0xa20
500010a0:	00000a78 	andeq	r0, r0, r8, ror sl
500010a4:	74737973 	ldrbtvc	r7, [r3], #-2419	; 0x973
500010a8:	63206d65 	teqvs	r0, #6464	; 0x1940
500010ac:	206c6c61 	rsbcs	r6, ip, r1, ror #24
500010b0:	206d756e 	rsbcs	r7, sp, lr, ror #10
500010b4:	6425203a 	strtvs	r2, [r5], #-58	; 0x3a
500010b8:	0000000a 	andeq	r0, r0, sl
500010bc:	3a20726c 	bcc	5081da74 <__bss_end+0x81c968>
500010c0:	0a702520 	beq	51c0a548 <__bss_end+0x1c0943c>
500010c4:	00000000 	andeq	r0, r0, r0
500010c8:	20746477 	rsbscs	r6, r4, r7, ror r4
500010cc:	20717269 	rsbscs	r7, r1, r9, ror #4
500010d0:	646e6168 	strbtvs	r6, [lr], #-360	; 0x168
500010d4:	0a72656c 	beq	51c9a68c <__bss_end+0x1c99580>
500010d8:	00000000 	andeq	r0, r0, r0
500010dc:	49555043 	ldmdbmi	r5, {r0, r1, r6, ip, lr}^
500010e0:	25203a44 	strcs	r3, [r0, #-2628]!	; 0xa44
500010e4:	52492064 	subpl	r2, r9, #100	; 0x64
500010e8:	3a444951 	bcc	51113634 <__bss_end+0x1112528>
500010ec:	0a642520 	beq	5190a574 <__bss_end+0x1909468>
500010f0:	00000000 	andeq	r0, r0, r0
500010f4:	206d7770 	rsbcs	r7, sp, r0, ror r7
500010f8:	656d6974 	strbvs	r6, [sp, #-2420]!	; 0x974
500010fc:	68203472 	stmdavs	r0!, {r1, r4, r5, r6, sl, ip, sp}
50001100:	6c646e61 	stclvs	14, cr6, [r4], #-388	; 0xfffffe7c
50001104:	000a7265 	andeq	r7, sl, r5, ror #4

Disassembly of section .data:

50001108 <ttb>:
50001108:	70000000 	andvc	r0, r0, r0

Disassembly of section .ARM.attributes:

00000000 <.ARM.attributes>:
   0:	00003341 	andeq	r3, r0, r1, asr #6
   4:	61656100 	cmnvs	r5, r0, lsl #2
   8:	01006962 	tsteq	r0, r2, ror #18
   c:	00000029 	andeq	r0, r0, r9, lsr #32
  10:	4d524105 	ldfmie	f4, [r2, #-20]	; 0xffffffec
  14:	36373131 	undefined instruction 0x36373131
  18:	2d465a4a 	vstrcs	s11, [r6, #-296]	; 0xfffffed8
  1c:	09060053 	stmdbeq	r6, {r0, r1, r4, r6}
  20:	01090108 	tsteq	r9, r8, lsl #2
  24:	0412020a 	ldreq	r0, [r2], #-522	; 0x20a
  28:	01150114 	tsteq	r5, r4, lsl r1
  2c:	01180317 	tsteq	r8, r7, lsl r3
  30:	031b021a 	tsteq	fp, #-1610612735	; 0xa0000001

Disassembly of section .comment:

00000000 <.comment>:
   0:	3a434347 	bcc	10d0d24 <_start-0x4ef2f2dc>
   4:	74632820 	strbtvc	r2, [r3], #-2080	; 0x820
   8:	312d676e 	teqcc	sp, lr, ror #14
   c:	312e382e 	teqcc	lr, lr, lsr #16
  10:	2941462d 	stmdbcs	r1, {r0, r2, r3, r5, r9, sl, lr}^
  14:	352e3420 	strcc	r3, [lr, #-1056]!	; 0x420
  18:	Address 0x00000018 is out of bounds.

